target datalayout = "e-m:e-p270:32:32-p271:32:32-p272:64:64-i64:64-i128:128-f80:128-n8:16:32:64-S128"
target triple = "x86_64-pc-linux-gnu"

%struct.mbinterval = type { i32, i32 }

; Function Attrs: nounwind uwtable
define internal i32 @mbbisearch(i32 noundef %0, ptr noundef %1, i32 noundef %2) #1 {
  %4 = alloca i32, align 4
  %5 = alloca i32, align 4
  %6 = alloca ptr, align 8
  %7 = alloca i32, align 4
  %8 = alloca i32, align 4
  %9 = alloca i32, align 4
  %10 = alloca i32, align 4
  store i32 %0, ptr %5, align 4
  store ptr %1, ptr %6, align 8
  store i32 %2, ptr %7, align 4
  call void @llvm.lifetime.start.p0(i64 4, ptr %8) #7
  store i32 0, ptr %8, align 4
  call void @llvm.lifetime.start.p0(i64 4, ptr %9) #7
  %11 = load i32, ptr %5, align 4
  %12 = load ptr, ptr %6, align 8
  %13 = getelementptr inbounds %struct.mbinterval, ptr %12, i64 0
  %14 = getelementptr inbounds nuw %struct.mbinterval, ptr %13, i32 0, i32 0
  %15 = load i32, ptr %14, align 4
  %16 = icmp ult i32 %11, %15
  br i1 %16, label %26, label %17

17:                                               ; preds = %3
  %18 = load i32, ptr %5, align 4
  %19 = load ptr, ptr %6, align 8
  %20 = load i32, ptr %7, align 4
  %21 = sext i32 %20 to i64
  %22 = getelementptr inbounds %struct.mbinterval, ptr %19, i64 %21
  %23 = getelementptr inbounds nuw %struct.mbinterval, ptr %22, i32 0, i32 1
  %24 = load i32, ptr %23, align 4
  %25 = icmp ugt i32 %18, %24
  br i1 %25, label %26, label %27

26:                                               ; preds = %17, %3
  store i32 0, ptr %4, align 4
  store i32 1, ptr %10, align 4
  br label %64

27:                                               ; preds = %17
  br label %28

28:                                               ; preds = %62, %27
  %29 = load i32, ptr %7, align 4
  %30 = load i32, ptr %8, align 4
  %31 = icmp sge i32 %29, %30
  br i1 %31, label %32, label %63

32:                                               ; preds = %28
  %33 = load i32, ptr %8, align 4
  %34 = load i32, ptr %7, align 4
  %35 = add i32 %33, %34
  %36 = sdiv i32 %35, 2
  store i32 %36, ptr %9, align 4
  %37 = load i32, ptr %5, align 4
  %38 = load ptr, ptr %6, align 8
  %39 = load i32, ptr %9, align 4
  %40 = sext i32 %39 to i64
  %41 = getelementptr inbounds %struct.mbinterval, ptr %38, i64 %40
  %42 = getelementptr inbounds nuw %struct.mbinterval, ptr %41, i32 0, i32 1
  %43 = load i32, ptr %42, align 4
  %44 = icmp ugt i32 %37, %43
  br i1 %44, label %45, label %48

45:                                               ; preds = %32
  %46 = load i32, ptr %9, align 4
  %47 = add i32 %46, 1
  store i32 %47, ptr %8, align 4
  br label %62

48:                                               ; preds = %32
  %49 = load i32, ptr %5, align 4
  %50 = load ptr, ptr %6, align 8
  %51 = load i32, ptr %9, align 4
  %52 = sext i32 %51 to i64
  %53 = getelementptr inbounds %struct.mbinterval, ptr %50, i64 %52
  %54 = getelementptr inbounds nuw %struct.mbinterval, ptr %53, i32 0, i32 0
  %55 = load i32, ptr %54, align 4
  %56 = icmp ult i32 %49, %55
  br i1 %56, label %57, label %60

57:                                               ; preds = %48
  %58 = load i32, ptr %9, align 4
  %59 = sub i32 %58, 1
  store i32 %59, ptr %7, align 4
  br label %61

60:                                               ; preds = %48
  store i32 1, ptr %4, align 4
  store i32 1, ptr %10, align 4
  br label %64

61:                                               ; preds = %57
  br label %62

62:                                               ; preds = %61, %45
  br label %28, !llvm.loop !34

63:                                               ; preds = %28
  store i32 0, ptr %4, align 4
  store i32 1, ptr %10, align 4
  br label %64

64:                                               ; preds = %63, %60, %26
  call void @llvm.lifetime.end.p0(i64 4, ptr %9) #7
  call void @llvm.lifetime.end.p0(i64 4, ptr %8) #7
  %65 = load i32, ptr %4, align 4
  ret i32 %65
}

; Function Attrs: nounwind uwtable
define internal i32 @ucs_wcwidth(i32 noundef %0) #1 {
  %2 = alloca i32, align 4
  %3 = alloca i32, align 4
  store i32 %0, ptr %3, align 4
  %4 = load i32, ptr %3, align 4
  %5 = icmp eq i32 %4, 0
  br i1 %5, label %6, label %7

6:                                                ; preds = %1
  store i32 0, ptr %2, align 4
  br label %31

7:                                                ; preds = %1
  %8 = load i32, ptr %3, align 4
  %9 = icmp ult i32 %8, 32
  br i1 %9, label %19, label %10

10:                                               ; preds = %7
  %11 = load i32, ptr %3, align 4
  %12 = icmp uge i32 %11, 127
  br i1 %12, label %13, label %16

13:                                               ; preds = %10
  %14 = load i32, ptr %3, align 4
  %15 = icmp ult i32 %14, 160
  br i1 %15, label %19, label %16

16:                                               ; preds = %13, %10
  %17 = load i32, ptr %3, align 4
  %18 = icmp ugt i32 %17, 1114111
  br i1 %18, label %19, label %20

19:                                               ; preds = %16, %13, %7
  store i32 -1, ptr %2, align 4
  br label %31

20:                                               ; preds = %16
  %21 = load i32, ptr %3, align 4
  %22 = call i32 @mbbisearch(i32 noundef %21, ptr noundef @ucs_wcwidth.nonspacing, i32 noundef 321)
  %23 = icmp ne i32 %22, 0
  br i1 %23, label %24, label %25

24:                                               ; preds = %20
  store i32 0, ptr %2, align 4
  br label %31

25:                                               ; preds = %20
  %26 = load i32, ptr %3, align 4
  %27 = call i32 @mbbisearch(i32 noundef %26, ptr noundef @ucs_wcwidth.east_asian_fw, i32 noundef 119)
  %28 = icmp ne i32 %27, 0
  br i1 %28, label %29, label %30

29:                                               ; preds = %25
  store i32 2, ptr %2, align 4
  br label %31

30:                                               ; preds = %25
  store i32 1, ptr %2, align 4
  br label %31

31:                                               ; preds = %30, %29, %24, %19, %6
  %32 = load i32, ptr %2, align 4
  ret i32 %32
}

; Function Attrs: inlinehint nounwind uwtable
define internal i32 @utf8_to_unicode(ptr noundef %0) #0 {
  %2 = alloca i32, align 4
  %3 = alloca ptr, align 8
  store ptr %0, ptr %3, align 8
  %4 = load ptr, ptr %3, align 8
  %5 = load i8, ptr %4, align 1
  %6 = zext i8 %5 to i32
  %7 = and i32 %6, 128
  %8 = icmp eq i32 %7, 0
  br i1 %8, label %9, label %14

9:                                                ; preds = %1
  %10 = load ptr, ptr %3, align 8
  %11 = getelementptr inbounds i8, ptr %10, i64 0
  %12 = load i8, ptr %11, align 1
  %13 = zext i8 %12 to i32
  store i32 %13, ptr %2, align 4
  br label %93

14:                                               ; preds = %1
  %15 = load ptr, ptr %3, align 8
  %16 = load i8, ptr %15, align 1
  %17 = zext i8 %16 to i32
  %18 = and i32 %17, 224
  %19 = icmp eq i32 %18, 192
  br i1 %19, label %20, label %33

20:                                               ; preds = %14
  %21 = load ptr, ptr %3, align 8
  %22 = getelementptr inbounds i8, ptr %21, i64 0
  %23 = load i8, ptr %22, align 1
  %24 = zext i8 %23 to i32
  %25 = and i32 %24, 31
  %26 = shl i32 %25, 6
  %27 = load ptr, ptr %3, align 8
  %28 = getelementptr inbounds i8, ptr %27, i64 1
  %29 = load i8, ptr %28, align 1
  %30 = zext i8 %29 to i32
  %31 = and i32 %30, 63
  %32 = or i32 %26, %31
  store i32 %32, ptr %2, align 4
  br label %93

33:                                               ; preds = %14
  %34 = load ptr, ptr %3, align 8
  %35 = load i8, ptr %34, align 1
  %36 = zext i8 %35 to i32
  %37 = and i32 %36, 240
  %38 = icmp eq i32 %37, 224
  br i1 %38, label %39, label %59

39:                                               ; preds = %33
  %40 = load ptr, ptr %3, align 8
  %41 = getelementptr inbounds i8, ptr %40, i64 0
  %42 = load i8, ptr %41, align 1
  %43 = zext i8 %42 to i32
  %44 = and i32 %43, 15
  %45 = shl i32 %44, 12
  %46 = load ptr, ptr %3, align 8
  %47 = getelementptr inbounds i8, ptr %46, i64 1
  %48 = load i8, ptr %47, align 1
  %49 = zext i8 %48 to i32
  %50 = and i32 %49, 63
  %51 = shl i32 %50, 6
  %52 = or i32 %45, %51
  %53 = load ptr, ptr %3, align 8
  %54 = getelementptr inbounds i8, ptr %53, i64 2
  %55 = load i8, ptr %54, align 1
  %56 = zext i8 %55 to i32
  %57 = and i32 %56, 63
  %58 = or i32 %52, %57
  store i32 %58, ptr %2, align 4
  br label %93

59:                                               ; preds = %33
  %60 = load ptr, ptr %3, align 8
  %61 = load i8, ptr %60, align 1
  %62 = zext i8 %61 to i32
  %63 = and i32 %62, 248
  %64 = icmp eq i32 %63, 240
  br i1 %64, label %65, label %92

65:                                               ; preds = %59
  %66 = load ptr, ptr %3, align 8
  %67 = getelementptr inbounds i8, ptr %66, i64 0
  %68 = load i8, ptr %67, align 1
  %69 = zext i8 %68 to i32
  %70 = and i32 %69, 7
  %71 = shl i32 %70, 18
  %72 = load ptr, ptr %3, align 8
  %73 = getelementptr inbounds i8, ptr %72, i64 1
  %74 = load i8, ptr %73, align 1
  %75 = zext i8 %74 to i32
  %76 = and i32 %75, 63
  %77 = shl i32 %76, 12
  %78 = or i32 %71, %77
  %79 = load ptr, ptr %3, align 8
  %80 = getelementptr inbounds i8, ptr %79, i64 2
  %81 = load i8, ptr %80, align 1
  %82 = zext i8 %81 to i32
  %83 = and i32 %82, 63
  %84 = shl i32 %83, 6
  %85 = or i32 %78, %84
  %86 = load ptr, ptr %3, align 8
  %87 = getelementptr inbounds i8, ptr %86, i64 3
  %88 = load i8, ptr %87, align 1
  %89 = zext i8 %88 to i32
  %90 = and i32 %89, 63
  %91 = or i32 %85, %90
  store i32 %91, ptr %2, align 4
  br label %93

92:                                               ; preds = %59
  store i32 -1, ptr %2, align 4
  br label %93

93:                                               ; preds = %92, %65, %39, %20, %9
  %94 = load i32, ptr %2, align 4
  ret i32 %94
}

; Function Attrs: nounwind uwtable
define internal i32 @pg_utf_dsplen(ptr noundef %0) #1 {
  %2 = alloca ptr, align 8
  store ptr %0, ptr %2, align 8
  %3 = load ptr, ptr %2, align 8
  %4 = call i32 @utf8_to_unicode(ptr noundef %3)
  %5 = call i32 @ucs_wcwidth(i32 noundef %4)
  ret i32 %5
}