; Function Attrs: nofree norecurse nosync nounwind memory(argmem: read) uwtable
define internal range(i32 -1, 3) i32 @pg_utf_dsplen(ptr noundef readonly captures(none) %0) #5 {
  %2 = load i8, ptr %0, align 1
  %3 = zext i8 %2 to i32
  %4 = icmp sgt i8 %2, -1
  br i1 %4, label %utf8_to_unicode.exit, label %5

5:                                                ; preds = %1
  %6 = and i32 %3, 224
  %7 = icmp eq i32 %6, 192
  br i1 %7, label %8, label %11

8:                                                ; preds = %5
  %9 = shl nuw nsw i32 %3, 6
  %10 = and i32 %9, 1984
  br label %.sink.split.i

11:                                               ; preds = %5
  %12 = and i32 %3, 240
  %13 = icmp eq i32 %12, 224
  br i1 %13, label %14, label %23

14:                                               ; preds = %11
  %15 = shl nuw nsw i32 %3, 12
  %16 = and i32 %15, 61440
  %17 = getelementptr inbounds nuw i8, ptr %0, i64 1
  %18 = load i8, ptr %17, align 1
  %19 = and i8 %18, 63
  %20 = zext nneg i8 %19 to i32
  %21 = shl nuw nsw i32 %20, 6
  %22 = or disjoint i32 %21, %16
  br label %.sink.split.i

23:                                               ; preds = %11
  %24 = and i32 %3, 248
  %25 = icmp eq i32 %24, 240
  br i1 %25, label %26, label %ucs_wcwidth.exit

26:                                               ; preds = %23
  %27 = shl nuw nsw i32 %3, 18
  %28 = and i32 %27, 1835008
  %29 = getelementptr inbounds nuw i8, ptr %0, i64 1
  %30 = load i8, ptr %29, align 1
  %31 = and i8 %30, 63
  %32 = zext nneg i8 %31 to i32
  %33 = shl nuw nsw i32 %32, 12
  %34 = or disjoint i32 %33, %28
  %35 = getelementptr inbounds nuw i8, ptr %0, i64 2
  %36 = load i8, ptr %35, align 1
  %37 = and i8 %36, 63
  %38 = zext nneg i8 %37 to i32
  %39 = shl nuw nsw i32 %38, 6
  %40 = or disjoint i32 %34, %39
  br label %.sink.split.i

.sink.split.i:                                    ; preds = %26, %14, %8
  %.sink18.i = phi i64 [ 3, %26 ], [ 2, %14 ], [ 1, %8 ]
  %.sink.i = phi i32 [ %40, %26 ], [ %22, %14 ], [ %10, %8 ]
  %41 = getelementptr inbounds nuw i8, ptr %0, i64 %.sink18.i
  %42 = load i8, ptr %41, align 1
  %43 = and i8 %42, 63
  %44 = zext nneg i8 %43 to i32
  %45 = or disjoint i32 %.sink.i, %44
  br label %utf8_to_unicode.exit

utf8_to_unicode.exit:                             ; preds = %1, %.sink.split.i
  %.0.i = phi i32 [ %3, %1 ], [ %45, %.sink.split.i ]
  %46 = icmp eq i32 %.0.i, 0
  br i1 %46, label %ucs_wcwidth.exit, label %47

47:                                               ; preds = %utf8_to_unicode.exit
  %48 = icmp samesign ult i32 %.0.i, 32
  br i1 %48, label %ucs_wcwidth.exit, label %49

49:                                               ; preds = %47
  %50 = add nsw i32 %.0.i, -127
  %or.cond.i = icmp ult i32 %50, 33
  %51 = icmp samesign ugt i32 %.0.i, 1114111
  %or.cond3.i = or i1 %51, %or.cond.i
  br i1 %or.cond3.i, label %ucs_wcwidth.exit, label %52

52:                                               ; preds = %49
  %53 = add nsw i32 %.0.i, -918000
  %or.cond27.i = icmp ult i32 %53, -917827
  br i1 %or.cond27.i, label %ucs_wcwidth.exit, label %.preheader.i.i

.preheader.i.i:                                   ; preds = %52, %68
  %.01722.i.i = phi i32 [ %.1.i.i, %68 ], [ 0, %52 ]
  %.01821.i.i = phi i32 [ %.119.i.i, %68 ], [ 321, %52 ]
  %54 = add i32 %.01821.i.i, %.01722.i.i
  %55 = sdiv i32 %54, 2
  %56 = sext i32 %55 to i64
  %57 = getelementptr inbounds %struct.mbinterval, ptr @ucs_wcwidth.nonspacing, i64 %56
  %58 = getelementptr inbounds nuw i8, ptr %57, i64 4
  %59 = load i32, ptr %58, align 4
  %60 = icmp ugt i32 %.0.i, %59
  br i1 %60, label %61, label %63

61:                                               ; preds = %.preheader.i.i
  %62 = add nsw i32 %55, 1
  br label %68

63:                                               ; preds = %.preheader.i.i
  %64 = load i32, ptr %57, align 8
  %65 = icmp ult i32 %.0.i, %64
  br i1 %65, label %66, label %ucs_wcwidth.exit

66:                                               ; preds = %63
  %67 = add nsw i32 %55, -1
  br label %68

68:                                               ; preds = %66, %61
  %.119.i.i = phi i32 [ %.01821.i.i, %61 ], [ %67, %66 ]
  %.1.i.i = phi i32 [ %62, %61 ], [ %.01722.i.i, %66 ]
  %.not.i.i = icmp slt i32 %.119.i.i, %.1.i.i
  br i1 %.not.i.i, label %69, label %.preheader.i.i, !llvm.loop !13

69:                                               ; preds = %68
  %70 = add nsw i32 %.0.i, -262142
  %or.cond28.i = icmp ult i32 %70, -257790
  br i1 %or.cond28.i, label %ucs_wcwidth.exit, label %.preheader.i13.i

.preheader.i13.i:                                 ; preds = %69, %85
  %.01722.i14.i = phi i32 [ %.1.i18.i, %85 ], [ 0, %69 ]
  %.01821.i15.i = phi i32 [ %.119.i17.i, %85 ], [ 119, %69 ]
  %71 = add i32 %.01821.i15.i, %.01722.i14.i
  %72 = sdiv i32 %71, 2
  %73 = sext i32 %72 to i64
  %74 = getelementptr inbounds %struct.mbinterval, ptr @ucs_wcwidth.east_asian_fw, i64 %73
  %75 = getelementptr inbounds nuw i8, ptr %74, i64 4
  %76 = load i32, ptr %75, align 4
  %77 = icmp ugt i32 %.0.i, %76
  br i1 %77, label %78, label %80

78:                                               ; preds = %.preheader.i13.i
  %79 = add nsw i32 %72, 1
  br label %85

80:                                               ; preds = %.preheader.i13.i
  %81 = load i32, ptr %74, align 8
  %82 = icmp ult i32 %.0.i, %81
  br i1 %82, label %83, label %ucs_wcwidth.exit

83:                                               ; preds = %80
  %84 = add nsw i32 %72, -1
  br label %85

85:                                               ; preds = %83, %78
  %.119.i17.i = phi i32 [ %.01821.i15.i, %78 ], [ %84, %83 ]
  %.1.i18.i = phi i32 [ %79, %78 ], [ %.01722.i14.i, %83 ]
  %.not.i19.i = icmp slt i32 %.119.i17.i, %.1.i18.i
  br i1 %.not.i19.i, label %ucs_wcwidth.exit, label %.preheader.i13.i, !llvm.loop !13

ucs_wcwidth.exit:                                 ; preds = %63, %80, %85, %23, %utf8_to_unicode.exit, %47, %49, %52, %69
  %.0.i1 = phi i32 [ 0, %utf8_to_unicode.exit ], [ -1, %49 ], [ -1, %47 ], [ 1, %69 ], [ 1, %52 ], [ -1, %23 ], [ 2, %80 ], [ 1, %85 ], [ 0, %63 ]
  ret i32 %.0.i1
}